target datalayout = "e-m:e-p270:32:32-p271:32:32-p272:64:64-i64:64-i128:128-f80:128-n8:16:32:64-S128"
target triple = "x86_64-pc-linux-gnu"

%struct.Fra_Bmc_t_ = type { i32, i32, i32, ptr, ptr, ptr, ptr, ptr, ptr }

; Function Attrs: nounwind uwtable
define void @Fra_BmcStop(ptr noundef %0) #0 {
  %2 = alloca ptr, align 8
  store ptr %0, ptr %2, align 8, !tbaa !44
  %3 = load ptr, ptr %2, align 8, !tbaa !44
  %4 = getelementptr inbounds nuw %struct.Fra_Bmc_t_, ptr %3, i32 0, i32 5
  %5 = load ptr, ptr %4, align 8, !tbaa !57
  call void @Aig_ManStop(ptr noundef %5)
  %6 = load ptr, ptr %2, align 8, !tbaa !44
  %7 = getelementptr inbounds nuw %struct.Fra_Bmc_t_, ptr %6, i32 0, i32 6
  %8 = load ptr, ptr %7, align 8, !tbaa !58
  %9 = icmp ne ptr %8, null
  br i1 %9, label %10, label %14

10:                                               ; preds = %1
  %11 = load ptr, ptr %2, align 8, !tbaa !44
  %12 = getelementptr inbounds nuw %struct.Fra_Bmc_t_, ptr %11, i32 0, i32 6
  %13 = load ptr, ptr %12, align 8, !tbaa !58
  call void @Aig_ManStop(ptr noundef %13)
  br label %14

14:                                               ; preds = %10, %1
  %15 = load ptr, ptr %2, align 8, !tbaa !44
  %16 = getelementptr inbounds nuw %struct.Fra_Bmc_t_, ptr %15, i32 0, i32 7
  %17 = load ptr, ptr %16, align 8, !tbaa !32
  %18 = icmp ne ptr %17, null
  br i1 %18, label %19, label %25

19:                                               ; preds = %14
  %20 = load ptr, ptr %2, align 8, !tbaa !44
  %21 = getelementptr inbounds nuw %struct.Fra_Bmc_t_, ptr %20, i32 0, i32 7
  %22 = load ptr, ptr %21, align 8, !tbaa !32
  call void @free(ptr noundef %22) #9
  %23 = load ptr, ptr %2, align 8, !tbaa !44
  %24 = getelementptr inbounds nuw %struct.Fra_Bmc_t_, ptr %23, i32 0, i32 7
  store ptr null, ptr %24, align 8, !tbaa !32
  br label %26

25:                                               ; preds = %14
  br label %26

26:                                               ; preds = %25, %19
  %27 = load ptr, ptr %2, align 8, !tbaa !44
  %28 = getelementptr inbounds nuw %struct.Fra_Bmc_t_, ptr %27, i32 0, i32 8
  %29 = load ptr, ptr %28, align 8, !tbaa !35
  %30 = icmp ne ptr %29, null
  br i1 %30, label %31, label %37

31:                                               ; preds = %26
  %32 = load ptr, ptr %2, align 8, !tbaa !44
  %33 = getelementptr inbounds nuw %struct.Fra_Bmc_t_, ptr %32, i32 0, i32 8
  %34 = load ptr, ptr %33, align 8, !tbaa !35
  call void @free(ptr noundef %34) #9
  %35 = load ptr, ptr %2, align 8, !tbaa !44
  %36 = getelementptr inbounds nuw %struct.Fra_Bmc_t_, ptr %35, i32 0, i32 8
  store ptr null, ptr %36, align 8, !tbaa !35
  br label %38

37:                                               ; preds = %26
  br label %38

38:                                               ; preds = %37, %31
  %39 = load ptr, ptr %2, align 8, !tbaa !44
  %40 = icmp ne ptr %39, null
  br i1 %40, label %41, label %43

41:                                               ; preds = %38
  %42 = load ptr, ptr %2, align 8, !tbaa !44
  call void @free(ptr noundef %42) #9
  store ptr null, ptr %2, align 8, !tbaa !44
  br label %44

43:                                               ; preds = %38
  br label %44

44:                                               ; preds = %43, %41
  ret void
}