; Function Attrs: nounwind uwtable
define void @Fra_BmcStop(ptr noundef captures(none) %0) local_unnamed_addr #2 {
  %2 = getelementptr inbounds nuw i8, ptr %0, i64 32
  %3 = load ptr, ptr %2, align 8, !tbaa !56
  tail call void @Aig_ManStop(ptr noundef %3) #16
  %4 = getelementptr inbounds nuw i8, ptr %0, i64 40
  %5 = load ptr, ptr %4, align 8, !tbaa !57
  %.not = icmp eq ptr %5, null
  br i1 %.not, label %7, label %6

6:                                                ; preds = %1
  tail call void @Aig_ManStop(ptr noundef nonnull %5) #16
  br label %7

7:                                                ; preds = %6, %1
  %8 = getelementptr inbounds nuw i8, ptr %0, i64 48
  %9 = load ptr, ptr %8, align 8, !tbaa !28
  %.not14 = icmp eq ptr %9, null
  br i1 %.not14, label %11, label %10

10:                                               ; preds = %7
  tail call void @free(ptr noundef nonnull %9) #16
  store ptr null, ptr %8, align 8, !tbaa !28
  br label %11

11:                                               ; preds = %7, %10
  %12 = getelementptr inbounds nuw i8, ptr %0, i64 56
  %13 = load ptr, ptr %12, align 8, !tbaa !30
  %.not15 = icmp eq ptr %13, null
  br i1 %.not15, label %15, label %14

14:                                               ; preds = %11
  tail call void @free(ptr noundef nonnull %13) #16
  br label %15

15:                                               ; preds = %11, %14
  tail call void @free(ptr noundef nonnull %0) #16
  ret void
}